; Function Attrs: nounwind uwtable
define internal fastcc range(i32 0, 2) i32 @rsakem_init(ptr noundef captures(address_is_null) %0, ptr noundef %1, ptr noundef %2, i32 noundef range(i32 4096, 8193) %3) unnamed_addr #0 {
  %5 = alloca i32, align 4
  call void @llvm.lifetime.start.p0(i64 4, ptr nonnull %5) #5
  store i32 0, ptr %5, align 4, !tbaa !18
  %6 = tail call i32 @ossl_prov_is_running() #5
  %.not = icmp eq i32 %6, 0
  br i1 %.not, label %rsakem_set_ctx_params.exit, label %7

7:                                                ; preds = %4
  %8 = icmp eq ptr %0, null
  %9 = icmp eq ptr %1, null
  %or.cond = or i1 %8, %9
  br i1 %or.cond, label %rsakem_set_ctx_params.exit, label %10

10:                                               ; preds = %7
  %11 = call i32 @ossl_rsa_key_op_get_protect(ptr noundef nonnull %1, i32 noundef %3, ptr noundef nonnull %5) #5
  %.not14 = icmp eq i32 %11, 0
  br i1 %.not14, label %rsakem_set_ctx_params.exit, label %12

12:                                               ; preds = %10
  %13 = call i32 @RSA_up_ref(ptr noundef nonnull %1) #5
  %.not15 = icmp eq i32 %13, 0
  br i1 %.not15, label %rsakem_set_ctx_params.exit, label %14

14:                                               ; preds = %12
  %15 = getelementptr inbounds nuw i8, ptr %0, i64 8
  %16 = load ptr, ptr %15, align 8, !tbaa !12
  call void @RSA_free(ptr noundef %16) #5
  store ptr %1, ptr %15, align 8, !tbaa !12
  %17 = icmp eq ptr %2, null
  br i1 %17, label %rsakem_set_ctx_params.exit, label %ossl_param_is_empty.exit.i

ossl_param_is_empty.exit.i:                       ; preds = %14
  %18 = load ptr, ptr %2, align 8, !tbaa !19
  %.not.i = icmp eq ptr %18, null
  br i1 %.not.i, label %rsakem_set_ctx_params.exit, label %19

19:                                               ; preds = %ossl_param_is_empty.exit.i
  %20 = call ptr @OSSL_PARAM_locate_const(ptr noundef nonnull %2, ptr noundef nonnull @.str.3) #5
  %.not13.i = icmp eq ptr %20, null
  br i1 %.not13.i, label %rsakem_set_ctx_params.exit, label %21

21:                                               ; preds = %19
  %22 = getelementptr inbounds nuw i8, ptr %20, i64 8
  %23 = load i32, ptr %22, align 8, !tbaa !22
  %.not14.i = icmp eq i32 %23, 4
  br i1 %.not14.i, label %24, label %rsakem_set_ctx_params.exit

24:                                               ; preds = %21
  %25 = getelementptr inbounds nuw i8, ptr %20, i64 16
  %26 = load ptr, ptr %25, align 8, !tbaa !23
  %27 = icmp eq ptr %26, null
  br i1 %27, label %rsakem_set_ctx_params.exit, label %rsakem_opname2id.exit.i

rsakem_opname2id.exit.i:                          ; preds = %24
  %28 = call i32 @OPENSSL_strcasecmp(ptr noundef nonnull @.str.4, ptr noundef nonnull %26) #5
  %.not17.i = icmp eq i32 %28, 0
  br i1 %.not17.i, label %29, label %rsakem_set_ctx_params.exit

29:                                               ; preds = %rsakem_opname2id.exit.i
  %30 = getelementptr inbounds nuw i8, ptr %0, i64 16
  store i32 0, ptr %30, align 8, !tbaa !11
  br label %rsakem_set_ctx_params.exit

rsakem_set_ctx_params.exit:                       ; preds = %14, %19, %29, %ossl_param_is_empty.exit.i, %rsakem_opname2id.exit.i, %24, %21, %12, %10, %7, %4
  %.0 = phi i32 [ 0, %4 ], [ 0, %7 ], [ 0, %10 ], [ 0, %12 ], [ 0, %rsakem_opname2id.exit.i ], [ 0, %24 ], [ 0, %21 ], [ 1, %ossl_param_is_empty.exit.i ], [ 1, %29 ], [ 1, %19 ], [ 1, %14 ]
  call void @llvm.lifetime.end.p0(i64 4, ptr nonnull %5) #5
  ret i32 %.0
}